target datalayout = "e-m:e-p270:32:32-p271:32:32-p272:64:64-i64:64-i128:128-f80:128-n8:16:32:64-S128"
target triple = "x86_64-pc-linux-gnu"

%struct.pkcs7_st = type { ptr, i64, i32, i32, ptr, %union.anon, %struct.PKCS7_CTX_st }
%union.anon = type { ptr }
%struct.PKCS7_CTX_st = type { ptr, ptr }
%struct.pkcs7_signed_st = type { ptr, ptr, ptr, ptr, ptr, ptr }
%struct.pkcs7_signedandenveloped_st = type { ptr, ptr, ptr, ptr, ptr, ptr, ptr }

; Function Attrs: nounwind uwtable
define ptr @PKCS7_get_signer_info(ptr noundef %0) #0 {
  %2 = alloca ptr, align 8
  %3 = alloca ptr, align 8
  store ptr %0, ptr %3, align 8, !tbaa !3
  %4 = load ptr, ptr %3, align 8, !tbaa !3
  %5 = icmp eq ptr %4, null
  br i1 %5, label %11, label %6

6:                                                ; preds = %1
  %7 = load ptr, ptr %3, align 8, !tbaa !3
  %8 = getelementptr inbounds nuw %struct.pkcs7_st, ptr %7, i32 0, i32 5
  %9 = load ptr, ptr %8, align 8, !tbaa !19
  %10 = icmp eq ptr %9, null
  br i1 %10, label %11, label %12

11:                                               ; preds = %6, %1
  store ptr null, ptr %2, align 8
  br label %37

12:                                               ; preds = %6
  %13 = load ptr, ptr %3, align 8, !tbaa !3
  %14 = getelementptr inbounds nuw %struct.pkcs7_st, ptr %13, i32 0, i32 4
  %15 = load ptr, ptr %14, align 8, !tbaa !14
  %16 = call i32 @OBJ_obj2nid(ptr noundef %15)
  %17 = icmp eq i32 %16, 22
  br i1 %17, label %18, label %24

18:                                               ; preds = %12
  %19 = load ptr, ptr %3, align 8, !tbaa !3
  %20 = getelementptr inbounds nuw %struct.pkcs7_st, ptr %19, i32 0, i32 5
  %21 = load ptr, ptr %20, align 8, !tbaa !19
  %22 = getelementptr inbounds nuw %struct.pkcs7_signed_st, ptr %21, i32 0, i32 4
  %23 = load ptr, ptr %22, align 8, !tbaa !54
  store ptr %23, ptr %2, align 8
  br label %37

24:                                               ; preds = %12
  %25 = load ptr, ptr %3, align 8, !tbaa !3
  %26 = getelementptr inbounds nuw %struct.pkcs7_st, ptr %25, i32 0, i32 4
  %27 = load ptr, ptr %26, align 8, !tbaa !14
  %28 = call i32 @OBJ_obj2nid(ptr noundef %27)
  %29 = icmp eq i32 %28, 24
  br i1 %29, label %30, label %36

30:                                               ; preds = %24
  %31 = load ptr, ptr %3, align 8, !tbaa !3
  %32 = getelementptr inbounds nuw %struct.pkcs7_st, ptr %31, i32 0, i32 5
  %33 = load ptr, ptr %32, align 8, !tbaa !19
  %34 = getelementptr inbounds nuw %struct.pkcs7_signedandenveloped_st, ptr %33, i32 0, i32 4
  %35 = load ptr, ptr %34, align 8, !tbaa !58
  store ptr %35, ptr %2, align 8
  br label %37

36:                                               ; preds = %24
  store ptr null, ptr %2, align 8
  br label %37

37:                                               ; preds = %36, %30, %18, %11
  %38 = load ptr, ptr %2, align 8
  ret ptr %38
}