; Function Attrs: nounwind uwtable
define ptr @PKCS7_get_signer_info(ptr noundef readonly captures(address_is_null) %0) local_unnamed_addr #0 {
  %2 = icmp eq ptr %0, null
  br i1 %2, label %19, label %3

3:                                                ; preds = %1
  %4 = getelementptr inbounds nuw i8, ptr %0, i64 32
  %5 = load ptr, ptr %4, align 8, !tbaa !14
  %6 = icmp eq ptr %5, null
  br i1 %6, label %19, label %7

7:                                                ; preds = %3
  %8 = getelementptr inbounds nuw i8, ptr %0, i64 24
  %9 = load ptr, ptr %8, align 8, !tbaa !3
  %10 = tail call i32 @OBJ_obj2nid(ptr noundef %9) #7
  %11 = icmp eq i32 %10, 22
  br i1 %11, label %.sink.split, label %12

12:                                               ; preds = %7
  %13 = load ptr, ptr %8, align 8, !tbaa !3
  %14 = tail call i32 @OBJ_obj2nid(ptr noundef %13) #7
  %15 = icmp eq i32 %14, 24
  br i1 %15, label %.sink.split, label %19

.sink.split:                                      ; preds = %12, %7
  %16 = load ptr, ptr %4, align 8, !tbaa !14
  %17 = getelementptr inbounds nuw i8, ptr %16, i64 32
  %18 = load ptr, ptr %17, align 8, !tbaa !45
  br label %19

19:                                               ; preds = %.sink.split, %12, %1, %3
  %.0 = phi ptr [ null, %3 ], [ null, %1 ], [ null, %12 ], [ %18, %.sink.split ]
  ret ptr %.0
}